(dp0
S'apiLogin'
p1
(dp2
S'apiID'
p3
S'bc753ae5'
p4
sS'apiKey'
p5
S'c6dc9952455acf31c0ad1787ae7ca9eb'
p6
ssS'database'
p7
(dp8
S'username'
p9
S'null'
p10
sS'host'
p11
g10
sS'password'
p12
g10
sS'port'
p13
g10
ss.